target datalayout = "e-m:e-p270:32:32-p271:32:32-p272:64:64-i64:64-i128:128-f80:128-n8:16:32:64-S128"
target triple = "x86_64-pc-linux-gnu"

%struct.tm = type { i32, i32, i32, i32, i32, i32, i32, i32, i32, i64, ptr }

; Function Attrs: nounwind uwtable
define internal void @easter(i32 noundef %0, ptr noundef %1, ptr noundef %2) #0 {
  %4 = alloca i32, align 4
  %5 = alloca ptr, align 8
  %6 = alloca ptr, align 8
  %7 = alloca i32, align 4
  %8 = alloca i32, align 4
  %9 = alloca i32, align 4
  %10 = alloca i32, align 4
  %11 = alloca i32, align 4
  %12 = alloca i32, align 4
  %13 = alloca i32, align 4
  %14 = alloca i32, align 4
  %15 = alloca i32, align 4
  %16 = alloca i32, align 4
  %17 = alloca i32, align 4
  %18 = alloca i32, align 4
  store i32 %0, ptr %4, align 4, !tbaa !15
  store ptr %1, ptr %5, align 8, !tbaa !43
  store ptr %2, ptr %6, align 8, !tbaa !43
  call void @llvm.lifetime.start.p0(i64 4, ptr %7) #18
  %19 = load i32, ptr %4, align 4, !tbaa !15
  %20 = srem i32 %19, 19
  store i32 %20, ptr %7, align 4, !tbaa !15
  call void @llvm.lifetime.start.p0(i64 4, ptr %8) #18
  %21 = load i32, ptr %4, align 4, !tbaa !15
  %22 = sdiv i32 %21, 100
  store i32 %22, ptr %8, align 4, !tbaa !15
  call void @llvm.lifetime.start.p0(i64 4, ptr %9) #18
  %23 = load i32, ptr %4, align 4, !tbaa !15
  %24 = srem i32 %23, 100
  store i32 %24, ptr %9, align 4, !tbaa !15
  call void @llvm.lifetime.start.p0(i64 4, ptr %10) #18
  %25 = load i32, ptr %8, align 4, !tbaa !15
  %26 = sdiv i32 %25, 4
  store i32 %26, ptr %10, align 4, !tbaa !15
  call void @llvm.lifetime.start.p0(i64 4, ptr %11) #18
  %27 = load i32, ptr %8, align 4, !tbaa !15
  %28 = srem i32 %27, 4
  store i32 %28, ptr %11, align 4, !tbaa !15
  call void @llvm.lifetime.start.p0(i64 4, ptr %12) #18
  %29 = load i32, ptr %8, align 4, !tbaa !15
  %30 = add nsw i32 %29, 8
  %31 = sdiv i32 %30, 25
  store i32 %31, ptr %12, align 4, !tbaa !15
  call void @llvm.lifetime.start.p0(i64 4, ptr %13) #18
  %32 = load i32, ptr %8, align 4, !tbaa !15
  %33 = load i32, ptr %12, align 4, !tbaa !15
  %34 = sub nsw i32 %32, %33
  %35 = add nsw i32 %34, 1
  %36 = sdiv i32 %35, 3
  store i32 %36, ptr %13, align 4, !tbaa !15
  call void @llvm.lifetime.start.p0(i64 4, ptr %14) #18
  %37 = load i32, ptr %7, align 4, !tbaa !15
  %38 = mul nsw i32 19, %37
  %39 = load i32, ptr %8, align 4, !tbaa !15
  %40 = add nsw i32 %38, %39
  %41 = load i32, ptr %10, align 4, !tbaa !15
  %42 = sub nsw i32 %40, %41
  %43 = load i32, ptr %13, align 4, !tbaa !15
  %44 = sub nsw i32 %42, %43
  %45 = add nsw i32 %44, 15
  %46 = srem i32 %45, 30
  store i32 %46, ptr %14, align 4, !tbaa !15
  call void @llvm.lifetime.start.p0(i64 4, ptr %15) #18
  %47 = load i32, ptr %9, align 4, !tbaa !15
  %48 = sdiv i32 %47, 4
  store i32 %48, ptr %15, align 4, !tbaa !15
  call void @llvm.lifetime.start.p0(i64 4, ptr %16) #18
  %49 = load i32, ptr %9, align 4, !tbaa !15
  %50 = srem i32 %49, 4
  store i32 %50, ptr %16, align 4, !tbaa !15
  call void @llvm.lifetime.start.p0(i64 4, ptr %17) #18
  %51 = load i32, ptr %11, align 4, !tbaa !15
  %52 = mul nsw i32 2, %51
  %53 = add nsw i32 32, %52
  %54 = load i32, ptr %15, align 4, !tbaa !15
  %55 = mul nsw i32 2, %54
  %56 = add nsw i32 %53, %55
  %57 = load i32, ptr %14, align 4, !tbaa !15
  %58 = sub nsw i32 %56, %57
  %59 = load i32, ptr %16, align 4, !tbaa !15
  %60 = sub nsw i32 %58, %59
  %61 = srem i32 %60, 7
  store i32 %61, ptr %17, align 4, !tbaa !15
  call void @llvm.lifetime.start.p0(i64 4, ptr %18) #18
  %62 = load i32, ptr %7, align 4, !tbaa !15
  %63 = load i32, ptr %14, align 4, !tbaa !15
  %64 = mul nsw i32 11, %63
  %65 = add nsw i32 %62, %64
  %66 = load i32, ptr %17, align 4, !tbaa !15
  %67 = mul nsw i32 22, %66
  %68 = add nsw i32 %65, %67
  %69 = sdiv i32 %68, 451
  store i32 %69, ptr %18, align 4, !tbaa !15
  %70 = load i32, ptr %14, align 4, !tbaa !15
  %71 = load i32, ptr %17, align 4, !tbaa !15
  %72 = add nsw i32 %70, %71
  %73 = load i32, ptr %18, align 4, !tbaa !15
  %74 = mul nsw i32 7, %73
  %75 = sub nsw i32 %72, %74
  %76 = add nsw i32 %75, 114
  %77 = sdiv i32 %76, 31
  %78 = load ptr, ptr %5, align 8, !tbaa !43
  store i32 %77, ptr %78, align 4, !tbaa !15
  %79 = load i32, ptr %14, align 4, !tbaa !15
  %80 = load i32, ptr %17, align 4, !tbaa !15
  %81 = add nsw i32 %79, %80
  %82 = load i32, ptr %18, align 4, !tbaa !15
  %83 = mul nsw i32 7, %82
  %84 = sub nsw i32 %81, %83
  %85 = add nsw i32 %84, 114
  %86 = srem i32 %85, 31
  %87 = add nsw i32 %86, 1
  %88 = load ptr, ptr %6, align 8, !tbaa !43
  store i32 %87, ptr %88, align 4, !tbaa !15
  call void @llvm.lifetime.end.p0(i64 4, ptr %18) #18
  call void @llvm.lifetime.end.p0(i64 4, ptr %17) #18
  call void @llvm.lifetime.end.p0(i64 4, ptr %16) #18
  call void @llvm.lifetime.end.p0(i64 4, ptr %15) #18
  call void @llvm.lifetime.end.p0(i64 4, ptr %14) #18
  call void @llvm.lifetime.end.p0(i64 4, ptr %13) #18
  call void @llvm.lifetime.end.p0(i64 4, ptr %12) #18
  call void @llvm.lifetime.end.p0(i64 4, ptr %11) #18
  call void @llvm.lifetime.end.p0(i64 4, ptr %10) #18
  call void @llvm.lifetime.end.p0(i64 4, ptr %9) #18
  call void @llvm.lifetime.end.p0(i64 4, ptr %8) #18
  call void @llvm.lifetime.end.p0(i64 4, ptr %7) #18
  ret void
}

; Function Attrs: nounwind uwtable
define i32 @dt_util_get_logo_season() #0 {
  %1 = alloca i32, align 4
  %2 = alloca i64, align 8
  %3 = alloca %struct.tm, align 8
  %4 = alloca i32, align 4
  %5 = alloca %struct.tm, align 8
  %6 = alloca i64, align 8
  call void @llvm.lifetime.start.p0(i64 8, ptr %2) #18
  %7 = call i64 @time(ptr noundef %2) #18
  call void @llvm.lifetime.start.p0(i64 56, ptr %3) #18
  %8 = call ptr @localtime_r(ptr noundef %2, ptr noundef %3) #18
  %9 = getelementptr inbounds nuw %struct.tm, ptr %3, i32 0, i32 4
  %10 = load i32, ptr %9, align 8, !tbaa !34
  %11 = icmp eq i32 %10, 9
  br i1 %11, label %12, label %16

12:                                               ; preds = %0
  %13 = getelementptr inbounds nuw %struct.tm, ptr %3, i32 0, i32 3
  %14 = load i32, ptr %13, align 4, !tbaa !36
  %15 = icmp eq i32 %14, 31
  br i1 %15, label %24, label %16

16:                                               ; preds = %12, %0
  %17 = getelementptr inbounds nuw %struct.tm, ptr %3, i32 0, i32 4
  %18 = load i32, ptr %17, align 8, !tbaa !34
  %19 = icmp eq i32 %18, 10
  br i1 %19, label %20, label %25

20:                                               ; preds = %16
  %21 = getelementptr inbounds nuw %struct.tm, ptr %3, i32 0, i32 3
  %22 = load i32, ptr %21, align 4, !tbaa !36
  %23 = icmp eq i32 %22, 1
  br i1 %23, label %24, label %25

24:                                               ; preds = %20, %12
  store i32 1, ptr %1, align 4
  store i32 1, ptr %4, align 4
  br label %58

25:                                               ; preds = %20, %16
  %26 = getelementptr inbounds nuw %struct.tm, ptr %3, i32 0, i32 4
  %27 = load i32, ptr %26, align 8, !tbaa !34
  %28 = icmp eq i32 %27, 11
  br i1 %28, label %29, label %34

29:                                               ; preds = %25
  %30 = getelementptr inbounds nuw %struct.tm, ptr %3, i32 0, i32 3
  %31 = load i32, ptr %30, align 4, !tbaa !36
  %32 = icmp sge i32 %31, 24
  br i1 %32, label %33, label %34

33:                                               ; preds = %29
  store i32 2, ptr %1, align 4
  store i32 1, ptr %4, align 4
  br label %58

34:                                               ; preds = %29, %25
  call void @llvm.lifetime.start.p0(i64 56, ptr %5) #18
  call void @llvm.memcpy.p0.p0.i64(ptr align 8 %5, ptr align 8 %3, i64 56, i1 false), !tbaa.struct !37
  %35 = getelementptr inbounds nuw %struct.tm, ptr %3, i32 0, i32 5
  %36 = load i32, ptr %35, align 4, !tbaa !38
  %37 = add nsw i32 %36, 1900
  %38 = getelementptr inbounds nuw %struct.tm, ptr %5, i32 0, i32 4
  %39 = getelementptr inbounds nuw %struct.tm, ptr %5, i32 0, i32 3
  call void @easter(i32 noundef %37, ptr noundef %38, ptr noundef %39)
  %40 = getelementptr inbounds nuw %struct.tm, ptr %5, i32 0, i32 4
  %41 = load i32, ptr %40, align 8, !tbaa !34
  %42 = add nsw i32 %41, -1
  store i32 %42, ptr %40, align 8, !tbaa !34
  %43 = getelementptr inbounds nuw %struct.tm, ptr %5, i32 0, i32 0
  store i32 0, ptr %43, align 8, !tbaa !39
  %44 = getelementptr inbounds nuw %struct.tm, ptr %5, i32 0, i32 1
  store i32 0, ptr %44, align 4, !tbaa !40
  %45 = getelementptr inbounds nuw %struct.tm, ptr %5, i32 0, i32 2
  store i32 0, ptr %45, align 8, !tbaa !41
  %46 = getelementptr inbounds nuw %struct.tm, ptr %5, i32 0, i32 8
  store i32 -1, ptr %46, align 8, !tbaa !42
  call void @llvm.lifetime.start.p0(i64 8, ptr %6) #18
  %47 = call i64 @mktime(ptr noundef %5) #18
  store i64 %47, ptr %6, align 8, !tbaa !13
  %48 = load i64, ptr %6, align 8, !tbaa !13
  %49 = load i64, ptr %2, align 8, !tbaa !13
  %50 = sub nsw i64 %48, %49
  %51 = call i64 @llvm.abs.i64(i64 %50, i1 true)
  %52 = icmp sle i64 %51, 172800
  br i1 %52, label %53, label %54

53:                                               ; preds = %34
  store i32 3, ptr %1, align 4
  store i32 1, ptr %4, align 4
  br label %55

54:                                               ; preds = %34
  store i32 0, ptr %4, align 4
  br label %55

55:                                               ; preds = %54, %53
  call void @llvm.lifetime.end.p0(i64 8, ptr %6) #18
  call void @llvm.lifetime.end.p0(i64 56, ptr %5) #18
  %56 = load i32, ptr %4, align 4
  switch i32 %56, label %58 [
    i32 0, label %57
  ]

57:                                               ; preds = %55
  store i32 0, ptr %1, align 4
  store i32 1, ptr %4, align 4
  br label %58

58:                                               ; preds = %57, %55, %33, %24
  call void @llvm.lifetime.end.p0(i64 56, ptr %3) #18
  call void @llvm.lifetime.end.p0(i64 8, ptr %2) #18
  %59 = load i32, ptr %1, align 4
  ret i32 %59
}