; Function Attrs: nounwind uwtable
define range(i32 0, 4) i32 @dt_util_get_logo_season() local_unnamed_addr #0 {
  %1 = alloca i64, align 8
  %2 = alloca %struct.tm, align 8
  %3 = alloca %struct.tm, align 8
  call void @llvm.lifetime.start.p0(i64 8, ptr nonnull %1) #27
  %4 = call i64 @time(ptr noundef nonnull %1) #27
  call void @llvm.lifetime.start.p0(i64 56, ptr nonnull %2) #27
  %5 = call ptr @localtime_r(ptr noundef nonnull %1, ptr noundef nonnull %2) #27
  %6 = getelementptr inbounds nuw i8, ptr %2, i64 16
  %7 = load i32, ptr %6, align 8, !tbaa !22
  %8 = icmp eq i32 %7, 9
  %9 = getelementptr inbounds nuw i8, ptr %2, i64 12
  %10 = load i32, ptr %9, align 4
  %11 = icmp eq i32 %10, 31
  %or.cond = select i1 %8, i1 %11, i1 false
  br i1 %or.cond, label %65, label %12

12:                                               ; preds = %0
  %13 = icmp eq i32 %7, 10
  %14 = icmp eq i32 %10, 1
  %or.cond5 = select i1 %13, i1 %14, i1 false
  br i1 %or.cond5, label %65, label %15

15:                                               ; preds = %12
  %16 = icmp eq i32 %7, 11
  %17 = icmp sgt i32 %10, 23
  %or.cond8 = select i1 %16, i1 %17, i1 false
  br i1 %or.cond8, label %65, label %18

18:                                               ; preds = %15
  call void @llvm.lifetime.start.p0(i64 56, ptr nonnull %3) #27
  call void @llvm.memcpy.p0.p0.i64(ptr noundef nonnull align 8 dereferenceable(56) %3, ptr noundef nonnull align 8 dereferenceable(56) %2, i64 56, i1 false), !tbaa.struct !24
  %19 = getelementptr inbounds nuw i8, ptr %2, i64 20
  %20 = load i32, ptr %19, align 4, !tbaa !27
  %21 = add nsw i32 %20, 1900
  %22 = getelementptr inbounds nuw i8, ptr %3, i64 16
  %23 = getelementptr inbounds nuw i8, ptr %3, i64 12
  %24 = srem i32 %21, 19
  %25 = sdiv i32 %21, 100
  %26 = srem i32 %21, 100
  %.neg28.i = sdiv i32 %21, -400
  %27 = srem i32 %25, 4
  %28 = add nsw i32 %25, 8
  %.neg.i = sdiv i32 %28, -25
  %29 = add nsw i32 %25, 1
  %30 = add nsw i32 %29, %.neg.i
  %.neg29.i = sdiv i32 %30, -3
  %31 = mul nsw i32 %24, 19
  %32 = add nsw i32 %25, 15
  %33 = add nsw i32 %32, %.neg28.i
  %34 = add nsw i32 %33, %31
  %35 = add nsw i32 %34, %.neg29.i
  %36 = srem i32 %35, 30
  %.lhs.trunc.i = trunc nsw i32 %26 to i8
  %37 = sdiv i8 %.lhs.trunc.i, 4
  %.sext.i = sext i8 %37 to i32
  %38 = srem i8 %.lhs.trunc.i, 4
  %.sext32.i = zext i8 %38 to i32
  %39 = add nsw i32 %27, %.sext.i
  %40 = shl nsw i32 %39, 1
  %41 = add nsw i32 %40, 32
  %42 = add nsw i32 %36, %.sext32.i
  %43 = sub nsw i32 %41, %42
  %.lhs.trunc33.i = trunc i32 %43 to i8
  %44 = srem i8 %.lhs.trunc33.i, 7
  %.sext34.i = sext i8 %44 to i32
  %45 = mul nsw i32 %36, 11
  %46 = add nsw i32 %45, %24
  %47 = mul nsw i32 %.sext34.i, 22
  %48 = add nsw i32 %46, %47
  %.lhs.trunc35.i = trunc nsw i32 %48 to i16
  %49 = sdiv i16 %.lhs.trunc35.i, 451
  %narrow.i = mul nsw i16 %49, 249
  %.neg3043.i = zext i16 %narrow.i to i32
  %50 = add nsw i32 %36, 114
  %51 = add nsw i32 %50, %.sext34.i
  %52 = add nuw nsw i32 %51, %.neg3043.i
  %.lhs.trunc37.i = trunc i32 %52 to i8
  %53 = udiv i8 %.lhs.trunc37.i, 31
  %.zext.i = zext nneg i8 %53 to i32
  %54 = urem i8 %.lhs.trunc37.i, 31
  %narrow40.i = add nuw nsw i8 %54, 1
  %55 = zext nneg i8 %narrow40.i to i32
  store i32 %55, ptr %23, align 4, !tbaa !25
  %56 = add nsw i32 %.zext.i, -1
  store i32 %56, ptr %22, align 8, !tbaa !22
  store i32 0, ptr %3, align 8, !tbaa !28
  %57 = getelementptr inbounds nuw i8, ptr %3, i64 4
  store i32 0, ptr %57, align 4, !tbaa !29
  %58 = getelementptr inbounds nuw i8, ptr %3, i64 8
  store i32 0, ptr %58, align 8, !tbaa !30
  %59 = getelementptr inbounds nuw i8, ptr %3, i64 32
  store i32 -1, ptr %59, align 8, !tbaa !31
  %60 = call i64 @mktime(ptr noundef nonnull %3) #27
  %61 = load i64, ptr %1, align 8, !tbaa !26
  %62 = sub nsw i64 %60, %61
  %63 = call i64 @llvm.abs.i64(i64 %62, i1 true)
  %64 = icmp samesign ugt i64 %63, 172800
  call void @llvm.lifetime.end.p0(i64 56, ptr nonnull %3) #27
  %spec.select = select i1 %64, i32 0, i32 3
  br label %65

65:                                               ; preds = %18, %15, %0, %12
  %.0 = phi i32 [ 1, %12 ], [ 1, %0 ], [ 2, %15 ], [ %spec.select, %18 ]
  call void @llvm.lifetime.end.p0(i64 56, ptr nonnull %2) #27
  call void @llvm.lifetime.end.p0(i64 8, ptr nonnull %1) #27
  ret i32 %.0
}